; Function Attrs: mustprogress nounwind uwtable
define hidden void @_ZN7testing8internal17TestEventRepeaterD2Ev(ptr noundef nonnull align 8 captures(none) dereferenceable(40) initializes((0, 8)) %0) unnamed_addr #5 align 2 personality ptr @__gxx_personality_v0 {
  store ptr getelementptr inbounds nuw inrange(-16, 120) (i8, ptr @_ZTVN7testing8internal17TestEventRepeaterE, i64 16), ptr %0, align 8, !tbaa !23
  %2 = getelementptr inbounds nuw i8, ptr %0, i64 16
  %3 = load ptr, ptr %2, align 8, !tbaa !714
  %4 = getelementptr inbounds nuw i8, ptr %0, i64 24
  %5 = load ptr, ptr %4, align 8, !tbaa !714
  %.not5.i.i = icmp eq ptr %3, %5
  br i1 %.not5.i.i, label %_ZN7testing8internal7ForEachISt6vectorIPNS_17TestEventListenerESaIS4_EEPFvS4_EEEvRKT_T0_.exit, label %.lr.ph.i.i

.lr.ph.i.i:                                       ; preds = %1, %_ZN7testing8internalL6DeleteINS_17TestEventListenerEEEvPT_.exit
  %.sroa.02.06.i.i = phi ptr [ %12, %_ZN7testing8internalL6DeleteINS_17TestEventListenerEEEvPT_.exit ], [ %3, %1 ]
  %6 = load ptr, ptr %.sroa.02.06.i.i, align 8, !tbaa !716
  %7 = icmp eq ptr %6, null
  br i1 %7, label %_ZN7testing8internalL6DeleteINS_17TestEventListenerEEEvPT_.exit, label %8

8:                                                ; preds = %.lr.ph.i.i
  %9 = load ptr, ptr %6, align 8, !tbaa !23
  %10 = getelementptr inbounds nuw i8, ptr %9, i64 8
  %11 = load ptr, ptr %10, align 8
  tail call void %11(ptr noundef nonnull align 8 dereferenceable(8) %6) #56
  br label %_ZN7testing8internalL6DeleteINS_17TestEventListenerEEEvPT_.exit

_ZN7testing8internalL6DeleteINS_17TestEventListenerEEEvPT_.exit: ; preds = %.lr.ph.i.i, %8
  %12 = getelementptr inbounds nuw i8, ptr %.sroa.02.06.i.i, i64 8
  %.not.i.i = icmp eq ptr %12, %5
  br i1 %.not.i.i, label %_ZN7testing8internal7ForEachISt6vectorIPNS_17TestEventListenerESaIS4_EEPFvS4_EEEvRKT_T0_.exitthread-pre-split, label %.lr.ph.i.i, !llvm.loop !717

_ZN7testing8internal7ForEachISt6vectorIPNS_17TestEventListenerESaIS4_EEPFvS4_EEEvRKT_T0_.exitthread-pre-split: ; preds = %_ZN7testing8internalL6DeleteINS_17TestEventListenerEEEvPT_.exit
  %.pr = load ptr, ptr %2, align 8, !tbaa !718
  br label %_ZN7testing8internal7ForEachISt6vectorIPNS_17TestEventListenerESaIS4_EEPFvS4_EEEvRKT_T0_.exit

_ZN7testing8internal7ForEachISt6vectorIPNS_17TestEventListenerESaIS4_EEPFvS4_EEEvRKT_T0_.exit: ; preds = %_ZN7testing8internal7ForEachISt6vectorIPNS_17TestEventListenerESaIS4_EEPFvS4_EEEvRKT_T0_.exitthread-pre-split, %1
  %13 = phi ptr [ %.pr, %_ZN7testing8internal7ForEachISt6vectorIPNS_17TestEventListenerESaIS4_EEPFvS4_EEEvRKT_T0_.exitthread-pre-split ], [ %3, %1 ]
  %.not.i.i.i = icmp eq ptr %13, null
  br i1 %.not.i.i.i, label %_ZNSt6vectorIPN7testing17TestEventListenerESaIS2_EED2Ev.exit, label %14

14:                                               ; preds = %_ZN7testing8internal7ForEachISt6vectorIPNS_17TestEventListenerESaIS4_EEPFvS4_EEEvRKT_T0_.exit
  tail call void @_ZdlPv(ptr noundef nonnull %13) #57
  br label %_ZNSt6vectorIPN7testing17TestEventListenerESaIS2_EED2Ev.exit

_ZNSt6vectorIPN7testing17TestEventListenerESaIS2_EED2Ev.exit: ; preds = %_ZN7testing8internal7ForEachISt6vectorIPNS_17TestEventListenerESaIS4_EEPFvS4_EEEvRKT_T0_.exit, %14
  ret void
}